; Function Attrs: mustprogress uwtable
define noundef ptr @ufmt_open_75(ptr nocapture noundef readonly %status) local_unnamed_addr #1 personality ptr @__gxx_personality_v0 {
entry:
  %0 = load i32, ptr %status, align 4
  %cmp.i = icmp slt i32 %0, 1
  br i1 %cmp.i, label %if.end, label %return

if.end:                                           ; preds = %entry
  %call1 = tail call noundef ptr @_ZN6icu_757UMemorynwEm(i64 noundef 112) #16
  %new.isnull = icmp ne ptr %call1, null
  tail call void @llvm.assume(i1 %new.isnull)
  invoke void @_ZN6icu_7511FormattableC1Ev(ptr noundef nonnull align 8 dereferenceable(112) %call1)
          to label %return unwind label %lpad

lpad:                                             ; preds = %if.end
  %1 = landingpad { ptr, i32 }
          cleanup
  tail call void @_ZN6icu_757UMemorydlEPv(ptr noundef nonnull %call1) #16
  resume { ptr, i32 } %1

return:                                           ; preds = %if.end, %entry
  %retval.0 = phi ptr [ null, %entry ], [ %call1, %if.end ]
  ret ptr %retval.0
}